Certificate:
    Data:
        Version: 3 (0x2)
        Serial Number:
            4f:2a:bc:78:43:46:58:8e:49:8d:47:e1:23:86:e7:2e
    Signature Algorithm: sha1WithRSAEncryption
        Issuer: DC=local, DC=ad, DC=contiv, CN=contiv-WIN-EDME78NSVJO-CA
        Validity
            Not Before: Apr  6 21:25:07 2017 GMT
            Not After : Apr  6 21:35:06 2022 GMT
        Subject: DC=local, DC=ad, DC=contiv, CN=contiv-WIN-EDME78NSVJO-CA
        Subject Public Key Info:
            Public Key Algorithm: rsaEncryption
                Public-Key: (2048 bit)
                Modulus:
                    00:b2:66:13:99:cd:0d:e5:7e:87:39:af:be:02:f6:
                    52:78:9b:77:2c:70:ad:96:df:4a:f8:af:1d:1d:16:
                    5c:f4:cd:2e:f0:01:3c:15:1f:4a:bc:df:27:29:6c:
                    29:a2:6f:e0:f9:7d:0d:5b:6f:86:0e:58:cf:02:e6:
                    66:64:da:71:ee:48:9a:9a:00:da:a9:84:01:92:06:
                    c2:e9:9f:f9:50:7a:aa:f4:28:73:1b:32:05:b5:a3:
                    e6:cc:ce:5a:f1:3d:9e:cd:96:1e:ed:cd:bd:37:86:
                    8a:74:47:9a:df:48:fd:cf:bf:97:e3:65:98:3f:01:
                    ca:88:3e:3d:cc:2f:d4:82:87:a1:bd:b6:ce:f5:7c:
                    ed:05:1e:4c:58:47:a3:9a:a7:7d:4e:e9:fa:5c:86:
                    4b:16:fa:86:bc:43:61:fb:a6:12:08:9e:33:5b:76:
                    17:88:7e:ff:7a:f4:40:ff:49:4c:ee:84:4a:c6:d4:
                    72:e7:ac:1f:39:32:26:90:8f:06:8a:4c:65:1c:24:
                    33:96:62:c7:19:11:b9:12:b1:3c:6b:2c:76:99:8b:
                    b1:87:0d:5f:07:ca:8e:e8:6a:e7:50:a0:75:63:0c:
                    be:d5:49:9f:d9:23:3a:9c:b3:47:c5:43:da:aa:12:
                    f4:c1:bf:ce:d0:14:c6:c5:b2:0c:75:09:35:3f:f8:
                    30:8d
                Exponent: 65537 (0x10001)
        X509v3 extensions:
            X509v3 Key Usage: 
                Digital Signature, Certificate Sign, CRL Sign
            X509v3 Basic Constraints: critical
                CA:TRUE
            X509v3 Subject Key Identifier: 
                2C:F7:0E:D2:35:52:8B:C6:D8:34:45:F0:82:2C:9A:92:E2:CB:36:12
            1.3.6.1.4.1.311.21.1: 
                ...
    Signature Algorithm: sha1WithRSAEncryption
         46:5d:a6:0b:4d:79:29:93:1d:20:cd:00:4e:5f:44:ca:e5:65:
         c5:e3:c9:96:f2:fa:ce:8f:a2:66:b3:52:b6:1c:b8:cd:1b:ed:
         64:5d:e5:50:a6:e9:2e:15:a2:78:f6:79:a0:dc:58:28:7c:53:
         b8:93:d9:6d:83:a2:9c:c9:2b:32:32:ef:8f:2f:ed:c4:ce:a3:
         d8:7e:d6:1a:ba:4c:30:30:b3:fa:4e:28:07:ef:76:16:10:8f:
         8e:9f:1f:eb:af:63:f4:53:1a:48:2d:3f:97:27:9f:f3:fb:7e:
         ae:ef:56:0f:84:6a:98:b7:ef:4a:0a:c5:58:2c:8a:93:60:1d:
         31:c1:02:5f:36:96:9a:ff:c9:26:83:e7:f3:d7:02:89:ef:3e:
         78:de:d5:bd:9b:92:92:0c:a2:07:d8:e1:a8:a0:47:b5:d0:a9:
         79:d6:07:7a:3e:c8:6d:41:fb:8b:d1:d5:60:57:86:ec:e3:21:
         36:03:6d:28:1f:d6:47:5d:af:4e:5a:75:7c:51:f7:d3:36:fb:
         25:e8:dd:8d:bd:39:41:e2:fa:3b:19:09:ae:f0:24:b3:23:b3:
         a4:7e:96:85:2f:31:44:f9:fe:cd:36:bb:44:2d:36:37:ce:bc:
         d0:4f:1c:0c:3a:e5:cd:c5:52:89:ce:3e:04:59:4d:01:62:a8:
         f4:65:07:f3
-----BEGIN CERTIFICATE-----
MIIDqTCCApGgAwIBAgIQTyq8eENGWI5JjUfhI4bnLjANBgkqhkiG9w0BAQUFADBn
MRUwEwYKCZImiZPyLGQBGRYFbG9jYWwxEjAQBgoJkiaJk/IsZAEZFgJhZDEWMBQG
CgmSJomT8ixkARkWBmNvbnRpdjEiMCAGA1UEAxMZY29udGl2LVdJTi1FRE1FNzhO
U1ZKTy1DQTAeFw0xNzA0MDYyMTI1MDdaFw0yMjA0MDYyMTM1MDZaMGcxFTATBgoJ
kiaJk/IsZAEZFgVsb2NhbDESMBAGCgmSJomT8ixkARkWAmFkMRYwFAYKCZImiZPy
LGQBGRYGY29udGl2MSIwIAYDVQQDExljb250aXYtV0lOLUVETUU3OE5TVkpPLUNB
MIIBIjANBgkqhkiG9w0BAQEFAAOCAQ8AMIIBCgKCAQEAsmYTmc0N5X6HOa++AvZS
eJt3LHCtlt9K+K8dHRZc9M0u8AE8FR9KvN8nKWwpom/g+X0NW2+GDljPAuZmZNpx
7kiamgDaqYQBkgbC6Z/5UHqq9ChzGzIFtaPmzM5a8T2ezZYe7c29N4aKdEea30j9
z7+X42WYPwHKiD49zC/UgoehvbbO9XztBR5MWEejmqd9Tun6XIZLFvqGvENh+6YS
CJ4zW3YXiH7/evRA/0lM7oRKxtRy56wfOTImkI8GikxlHCQzlmLHGRG5ErE8ayx2
mYuxhw1fB8qO6GrnUKB1Ywy+1Umf2SM6nLNHxUPaqhL0wb/O0BTGxbIMdQk1P/gw
jQIDAQABo1EwTzALBgNVHQ8EBAMCAYYwDwYDVR0TAQH/BAUwAwEB/zAdBgNVHQ4E
FgQULPcO0jVSi8bYNEXwgiyakuLLNhIwEAYJKwYBBAGCNxUBBAMCAQAwDQYJKoZI
hvcNAQEFBQADggEBAEZdpgtNeSmTHSDNAE5fRMrlZcXjyZby+s6PomazUrYcuM0b
7WRd5VCm6S4Vonj2eaDcWCh8U7iT2W2DopzJKzIy748v7cTOo9h+1hq6TDAws/pO
KAfvdhYQj46fH+uvY/RTGkgtP5cnn/P7fq7vVg+Eapi370oKxVgsipNgHTHBAl82
lpr/ySaD5/PXAonvPnje1b2bkpIMogfY4aigR7XQqXnWB3o+yG1B+4vR1WBXhuzj
ITYDbSgf1kddr05adXxR99M2+yXo3Y29OUHi+jsZCa7wJLMjs6R+loUvMUT5/s02
u0QtNjfOvNBPHAw65c3FUonOPgRZTQFiqPRlB/M=
-----END CERTIFICATE-----
